target datalayout = "e-m:e-p270:32:32-p271:32:32-p272:64:64-i64:64-i128:128-f80:128-n8:16:32:64-S128"
target triple = "x86_64-pc-linux-gnu"

%struct.DdManager = type { %struct.DdNode, ptr, ptr, ptr, ptr, ptr, ptr, ptr, i32, i32, double, double, double, i32, i32, i32, i32, i32, i32, ptr, ptr, %struct.DdSubtable, i32, i32, i32, i32, i32, i32, i32, double, i32, i32, i32, ptr, i64, double, i32, ptr, ptr, ptr, ptr, ptr, ptr, ptr, i32, ptr, ptr, ptr, ptr, ptr, ptr, i32, i32, i32, double, i32, i32, i32, i32, double, double, i32, i32, i32, i32, i32, i32, i32, i32, i32, ptr, ptr, i32, i32, i32, i32, i32, i32, ptr, ptr, ptr, ptr, ptr, ptr, ptr, ptr, i32, i64, i64, i64, i32, i64, i64, double, double, double, double, double, double, i32, ptr, ptr, i64 }
%struct.DdNode = type { i32, i32, ptr, %union.anon, i64 }
%union.anon = type { %struct.DdChildren }
%struct.DdChildren = type { ptr, ptr }
%struct.DdSubtable = type { ptr, i32, i32, i32, i32, i32, i32, i32, i32, i32, i32, i32 }
%struct.DdHook = type { ptr, ptr }

; Function Attrs: nounwind uwtable
define i32 @Cudd_IsInHook(ptr noundef %0, ptr noundef %1, i32 noundef %2) #0 {
  %4 = alloca i32, align 4
  %5 = alloca ptr, align 8
  %6 = alloca ptr, align 8
  %7 = alloca i32, align 4
  %8 = alloca ptr, align 8
  store ptr %0, ptr %5, align 8
  store ptr %1, ptr %6, align 8
  store i32 %2, ptr %7, align 4
  %9 = load i32, ptr %7, align 4
  switch i32 %9, label %26 [
    i32 0, label %10
    i32 1, label %14
    i32 2, label %18
    i32 3, label %22
  ]

10:                                               ; preds = %3
  %11 = load ptr, ptr %5, align 8
  %12 = getelementptr inbounds %struct.DdManager, ptr %11, i32 0, i32 80
  %13 = load ptr, ptr %12, align 8
  store ptr %13, ptr %8, align 8
  br label %27

14:                                               ; preds = %3
  %15 = load ptr, ptr %5, align 8
  %16 = getelementptr inbounds %struct.DdManager, ptr %15, i32 0, i32 81
  %17 = load ptr, ptr %16, align 8
  store ptr %17, ptr %8, align 8
  br label %27

18:                                               ; preds = %3
  %19 = load ptr, ptr %5, align 8
  %20 = getelementptr inbounds %struct.DdManager, ptr %19, i32 0, i32 82
  %21 = load ptr, ptr %20, align 8
  store ptr %21, ptr %8, align 8
  br label %27

22:                                               ; preds = %3
  %23 = load ptr, ptr %5, align 8
  %24 = getelementptr inbounds %struct.DdManager, ptr %23, i32 0, i32 83
  %25 = load ptr, ptr %24, align 8
  store ptr %25, ptr %8, align 8
  br label %27

26:                                               ; preds = %3
  store i32 0, ptr %4, align 4
  br label %43

27:                                               ; preds = %22, %18, %14, %10
  br label %28

28:                                               ; preds = %38, %27
  %29 = load ptr, ptr %8, align 8
  %30 = icmp ne ptr %29, null
  br i1 %30, label %31, label %42

31:                                               ; preds = %28
  %32 = load ptr, ptr %8, align 8
  %33 = getelementptr inbounds %struct.DdHook, ptr %32, i32 0, i32 0
  %34 = load ptr, ptr %33, align 8
  %35 = load ptr, ptr %6, align 8
  %36 = icmp eq ptr %34, %35
  br i1 %36, label %37, label %38

37:                                               ; preds = %31
  store i32 1, ptr %4, align 4
  br label %43

38:                                               ; preds = %31
  %39 = load ptr, ptr %8, align 8
  %40 = getelementptr inbounds %struct.DdHook, ptr %39, i32 0, i32 1
  %41 = load ptr, ptr %40, align 8
  store ptr %41, ptr %8, align 8
  br label %28, !llvm.loop !33

42:                                               ; preds = %28
  store i32 0, ptr %4, align 4
  br label %43

43:                                               ; preds = %42, %37, %26
  %44 = load i32, ptr %4, align 4
  ret i32 %44
}