; Function Attrs: nofree norecurse nosync nounwind memory(read, inaccessiblemem: none) uwtable
define range(i32 0, 2) i32 @Cudd_IsInHook(ptr noundef readonly captures(none) %0, ptr noundef readnone %1, i32 noundef %2) local_unnamed_addr #9 {
  %4 = icmp ult i32 %2, 4
  br i1 %4, label %switch.lookup, label %.loopexit

switch.lookup:                                    ; preds = %3
  %5 = shl nuw nsw i32 %2, 3
  %6 = or disjoint i32 %5, 576
  %switch.offset = zext nneg i32 %6 to i64
  %7 = getelementptr inbounds nuw i8, ptr %0, i64 %switch.offset
  %.110 = load ptr, ptr %7, align 8
  %.not11 = icmp eq ptr %.110, null
  br i1 %.not11, label %.loopexit, label %.lr.ph

8:                                                ; preds = %.lr.ph
  %9 = getelementptr inbounds nuw i8, ptr %.112, i64 8
  %.1 = load ptr, ptr %9, align 8
  %.not = icmp eq ptr %.1, null
  br i1 %.not, label %.loopexit, label %.lr.ph, !llvm.loop !32

.lr.ph:                                           ; preds = %switch.lookup, %8
  %.112 = phi ptr [ %.1, %8 ], [ %.110, %switch.lookup ]
  %10 = load ptr, ptr %.112, align 8
  %11 = icmp eq ptr %10, %1
  br i1 %11, label %.loopexit, label %8

.loopexit:                                        ; preds = %.lr.ph, %8, %3, %switch.lookup
  %.09 = phi i32 [ 0, %3 ], [ 0, %switch.lookup ], [ 1, %.lr.ph ], [ 0, %8 ]
  ret i32 %.09
}